; Function Attrs: mustprogress nounwind uwtable
define hidden void @_ZN9Metaspace28print_compressed_class_spaceEP12outputStream(ptr noundef %0) local_unnamed_addr #0 align 2 {
  %2 = tail call noundef ptr @_ZN9metaspace16VirtualSpaceList12vslist_classEv() #14
  %.not = icmp eq ptr %2, null
  br i1 %.not, label %23, label %3

3:                                                ; preds = %1
  %4 = tail call noundef ptr @_ZN9metaspace16VirtualSpaceList12vslist_classEv() #14
  %5 = getelementptr inbounds i8, ptr %4, i64 16
  %6 = load volatile ptr, ptr %5, align 8
  %.not.i = icmp eq ptr %6, null
  br i1 %.not.i, label %_ZNK9metaspace16VirtualSpaceList18base_of_first_nodeEv.exit, label %7

7:                                                ; preds = %3
  %8 = load volatile ptr, ptr %5, align 8
  %9 = getelementptr inbounds i8, ptr %8, i64 72
  %10 = load ptr, ptr %9, align 8
  br label %_ZNK9metaspace16VirtualSpaceList18base_of_first_nodeEv.exit

_ZNK9metaspace16VirtualSpaceList18base_of_first_nodeEv.exit: ; preds = %3, %7
  %11 = phi ptr [ %10, %7 ], [ null, %3 ]
  %12 = tail call noundef ptr @_ZN9metaspace16VirtualSpaceList12vslist_classEv() #14
  %13 = getelementptr inbounds i8, ptr %12, i64 16
  %14 = load volatile ptr, ptr %13, align 8
  %.not.i7 = icmp eq ptr %14, null
  br i1 %.not.i7, label %_ZNK9metaspace16VirtualSpaceList23word_size_of_first_nodeEv.exit, label %15

15:                                               ; preds = %_ZNK9metaspace16VirtualSpaceList18base_of_first_nodeEv.exit
  %16 = load volatile ptr, ptr %13, align 8
  %17 = getelementptr inbounds i8, ptr %16, i64 80
  %18 = load i64, ptr %17, align 8
  br label %_ZNK9metaspace16VirtualSpaceList23word_size_of_first_nodeEv.exit

_ZNK9metaspace16VirtualSpaceList23word_size_of_first_nodeEv.exit: ; preds = %_ZNK9metaspace16VirtualSpaceList18base_of_first_nodeEv.exit, %15
  %19 = phi i64 [ %18, %15 ], [ 0, %_ZNK9metaspace16VirtualSpaceList18base_of_first_nodeEv.exit ]
  %20 = getelementptr inbounds ptr, ptr %11, i64 %19
  %21 = ptrtoint ptr %11 to i64
  %22 = ptrtoint ptr %20 to i64
  %.idx = shl nsw i64 %19, 3
  tail call void (ptr, ptr, ...) @_ZN12outputStream5printEPKcz(ptr noundef nonnull align 8 dereferenceable(56) %0, ptr noundef nonnull @.str.23, i64 noundef %21, i64 noundef %22, i64 noundef %.idx) #14
  tail call void @_ZN12outputStream2crEv(ptr noundef nonnull align 8 dereferenceable(56) %0) #14
  br label %23

23:                                               ; preds = %_ZNK9metaspace16VirtualSpaceList23word_size_of_first_nodeEv.exit, %1
  ret void
}